; ModuleID = '43/98.c'
source_filename = "43/98.c"
target datalayout = "e-m:e-p270:32:32-p271:32:32-p272:64:64-i64:64-f80:128-n8:16:32:64-S128"
target triple = "x86_64-pc-linux-gnu"

@.str = private unnamed_addr constant [3 x i8] c"%d\00", align 1
@.str.1 = private unnamed_addr constant [4 x i8] c"3 3\00", align 1
@.str.2 = private unnamed_addr constant [7 x i8] c"%d %d\0A\00", align 1

; Function Attrs: noinline nounwind uwtable
define dso_local i32 @main() #0 {
  %1 = alloca i32, align 4
  %2 = alloca i32, align 4
  %3 = alloca i32, align 4
  %4 = alloca i32, align 4
  %5 = alloca i32, align 4
  %6 = alloca i32, align 4
  %7 = alloca i32, align 4
  store i32 0, i32* %1, align 4
  %8 = call i32 (i8*, ...) @__isoc99_scanf(i8* getelementptr inbounds ([3 x i8], [3 x i8]* @.str, i64 0, i64 0), i32* %2)
  %9 = load i32, i32* %2, align 4
  %10 = sdiv i32 %9, 2
  store i32 %10, i32* %3, align 4
  %11 = load i32, i32* %2, align 4
  %12 = icmp eq i32 %11, 6
  br i1 %12, label %13, label %15

13:                                               ; preds = %0
  %14 = call i32 (i8*, ...) @printf(i8* getelementptr inbounds ([4 x i8], [4 x i8]* @.str.1, i64 0, i64 0))
  store i32 0, i32* %1, align 4
  br label %71

15:                                               ; preds = %0
  store i32 3, i32* %4, align 4
  br label %16

16:                                               ; preds = %65, %15
  %17 = load i32, i32* %4, align 4
  %18 = load i32, i32* %3, align 4
  %19 = icmp sle i32 %17, %18
  br i1 %19, label %20, label %68

20:                                               ; preds = %16
  store i32 0, i32* %6, align 4
  store i32 2, i32* %5, align 4
  br label %21

21:                                               ; preds = %32, %20
  %22 = load i32, i32* %5, align 4
  %23 = load i32, i32* %4, align 4
  %24 = icmp slt i32 %22, %23
  br i1 %24, label %25, label %35

25:                                               ; preds = %21
  %26 = load i32, i32* %4, align 4
  %27 = load i32, i32* %5, align 4
  %28 = srem i32 %26, %27
  %29 = icmp eq i32 %28, 0
  br i1 %29, label %30, label %31

30:                                               ; preds = %25
  store i32 1, i32* %6, align 4
  br label %31

31:                                               ; preds = %30, %25
  br label %32

32:                                               ; preds = %31
  %33 = load i32, i32* %5, align 4
  %34 = add nsw i32 %33, 1
  store i32 %34, i32* %5, align 4
  br label %21

35:                                               ; preds = %21
  %36 = load i32, i32* %6, align 4
  %37 = icmp eq i32 %36, 0
  br i1 %37, label %38, label %64

38:                                               ; preds = %35
  %39 = load i32, i32* %2, align 4
  %40 = load i32, i32* %4, align 4
  %41 = sub nsw i32 %39, %40
  store i32 %41, i32* %7, align 4
  store i32 0, i32* %6, align 4
  store i32 2, i32* %5, align 4
  br label %42

42:                                               ; preds = %53, %38
  %43 = load i32, i32* %5, align 4
  %44 = load i32, i32* %7, align 4
  %45 = icmp slt i32 %43, %44
  br i1 %45, label %46, label %56

46:                                               ; preds = %42
  %47 = load i32, i32* %7, align 4
  %48 = load i32, i32* %5, align 4
  %49 = srem i32 %47, %48
  %50 = icmp eq i32 %49, 0
  br i1 %50, label %51, label %52

51:                                               ; preds = %46
  store i32 1, i32* %6, align 4
  br label %52

52:                                               ; preds = %51, %46
  br label %53

53:                                               ; preds = %52
  %54 = load i32, i32* %5, align 4
  %55 = add nsw i32 %54, 1
  store i32 %55, i32* %5, align 4
  br label %42

56:                                               ; preds = %42
  %57 = load i32, i32* %6, align 4
  %58 = icmp eq i32 %57, 0
  br i1 %58, label %59, label %63

59:                                               ; preds = %56
  %60 = load i32, i32* %4, align 4
  %61 = load i32, i32* %7, align 4
  %62 = call i32 (i8*, ...) @printf(i8* getelementptr inbounds ([7 x i8], [7 x i8]* @.str.2, i64 0, i64 0), i32 %60, i32 %61)
  br label %63

63:                                               ; preds = %59, %56
  br label %64

64:                                               ; preds = %63, %35
  br label %65

65:                                               ; preds = %64
  %66 = load i32, i32* %4, align 4
  %67 = add nsw i32 %66, 1
  store i32 %67, i32* %4, align 4
  br label %16

68:                                               ; preds = %16
  %69 = call i32 @getchar()
  %70 = call i32 @getchar()
  br label %71

71:                                               ; preds = %68, %13
  %72 = load i32, i32* %1, align 4
  ret i32 %72
}

declare dso_local i32 @__isoc99_scanf(i8*, ...) #1

declare dso_local i32 @printf(i8*, ...) #1

declare dso_local i32 @getchar() #1


!llvm.module.flags = !{!0}
!llvm.ident = !{!1}

!0 = !{i32 1, !"wchar_size", i32 4}
!1 = !{!"clang version 10.0.0-4ubuntu1 "}
